; Function Attrs: mustprogress uwtable
define hidden void @_ZN19OpenColorIO_v2_5dev24GradingToneTransformImpl8setValueERKNS_11GradingToneE(ptr noundef nonnull readonly align 8 captures(none) dereferenceable(208) %0, ptr noundef nonnull align 8 dereferenceable(248) %1) unnamed_addr #0 align 2 {
  %3 = getelementptr inbounds nuw i8, ptr %0, i64 184
  %4 = load ptr, ptr %3, align 8, !tbaa !58
  %5 = load ptr, ptr %4, align 8, !tbaa !3
  %6 = getelementptr inbounds nuw i8, ptr %5, i64 32
  %7 = load ptr, ptr %6, align 8
  tail call void %7(ptr noundef nonnull align 8 dereferenceable(1208) %4, ptr noundef nonnull align 8 dereferenceable(248) %1)
  ret void
}